target datalayout = "e-m:e-p270:32:32-p271:32:32-p272:64:64-i64:64-i128:128-f80:128-n8:16:32:64-S128"
target triple = "x86_64-unknown-linux-gnu"

%"class.rocksdb::(anonymous namespace)::SkipListRep" = type { %"class.rocksdb::MemTableRep", %"class.rocksdb::InlineSkipList", ptr, ptr, i64 }
%"class.rocksdb::MemTableRep" = type { ptr, ptr }
%"class.rocksdb::InlineSkipList" = type { i16, i16, i32, ptr, ptr, ptr, %"struct.std::atomic", ptr }
%"struct.std::atomic" = type { %"struct.std::__atomic_base" }
%"struct.std::__atomic_base" = type { i32 }
%"struct.rocksdb::InlineSkipList<const rocksdb::MemTableRep::KeyComparator &>::Node" = type { [1 x %"struct.std::atomic.29"] }
%"struct.std::atomic.29" = type { %"struct.std::__atomic_base.30" }
%"struct.std::__atomic_base.30" = type { ptr }
%"class.rocksdb::Random" = type { i32 }

; Function Attrs: mustprogress nounwind uwtable
define linkonce_odr void @_ZN7rocksdb14InlineSkipListIRKNS_11MemTableRep13KeyComparatorEE4Node11StashHeightEi(ptr noundef nonnull align 8 dereferenceable(8) %this, i32 noundef %height) #1 comdat align 2 {
entry:
  %this.addr = alloca ptr, align 8
  %height.addr = alloca i32, align 4
  store ptr %this, ptr %this.addr, align 8
  store i32 %height, ptr %height.addr, align 4
  %this1 = load ptr, ptr %this.addr, align 8
  %next_ = getelementptr inbounds %"struct.rocksdb::InlineSkipList<const rocksdb::MemTableRep::KeyComparator &>::Node", ptr %this1, i32 0, i32 0
  %arrayidx = getelementptr inbounds [1 x %"struct.std::atomic.29"], ptr %next_, i64 0, i64 0
  call void @llvm.memcpy.p0.p0.i64(ptr align 1 %arrayidx, ptr align 4 %height.addr, i64 4, i1 false)
  ret void
}

; Function Attrs: mustprogress nounwind uwtable
define linkonce_odr noundef i32 @_ZN7rocksdb6Random4NextEv(ptr noundef nonnull align 4 dereferenceable(4) %this) #1 comdat align 2 {
entry:
  %this.addr = alloca ptr, align 8
  %product = alloca i64, align 8
  store ptr %this, ptr %this.addr, align 8
  %this1 = load ptr, ptr %this.addr, align 8
  %seed_ = getelementptr inbounds %"class.rocksdb::Random", ptr %this1, i32 0, i32 0
  %0 = load i32, ptr %seed_, align 4
  %conv = zext i32 %0 to i64
  %mul = mul i64 %conv, 16807
  store i64 %mul, ptr %product, align 8
  %1 = load i64, ptr %product, align 8
  %shr = lshr i64 %1, 31
  %2 = load i64, ptr %product, align 8
  %and = and i64 %2, 2147483647
  %add = add i64 %shr, %and
  %conv2 = trunc i64 %add to i32
  %seed_3 = getelementptr inbounds %"class.rocksdb::Random", ptr %this1, i32 0, i32 0
  store i32 %conv2, ptr %seed_3, align 4
  %seed_4 = getelementptr inbounds %"class.rocksdb::Random", ptr %this1, i32 0, i32 0
  %3 = load i32, ptr %seed_4, align 4
  %cmp = icmp ugt i32 %3, 2147483647
  br i1 %cmp, label %if.then, label %if.end

if.then:                                          ; preds = %entry
  %seed_5 = getelementptr inbounds %"class.rocksdb::Random", ptr %this1, i32 0, i32 0
  %4 = load i32, ptr %seed_5, align 4
  %sub = sub i32 %4, 2147483647
  store i32 %sub, ptr %seed_5, align 4
  br label %if.end

if.end:                                           ; preds = %if.then, %entry
  %seed_6 = getelementptr inbounds %"class.rocksdb::Random", ptr %this1, i32 0, i32 0
  %5 = load i32, ptr %seed_6, align 4
  ret i32 %5
}

; Function Attrs: mustprogress nounwind uwtable
define linkonce_odr noundef ptr @_ZNK7rocksdb14InlineSkipListIRKNS_11MemTableRep13KeyComparatorEE4Node3KeyEv(ptr noundef nonnull align 8 dereferenceable(8) %this) #1 comdat align 2 {
entry:
  %this.addr = alloca ptr, align 8
  store ptr %this, ptr %this.addr, align 8
  %this1 = load ptr, ptr %this.addr, align 8
  %next_ = getelementptr inbounds %"struct.rocksdb::InlineSkipList<const rocksdb::MemTableRep::KeyComparator &>::Node", ptr %this1, i32 0, i32 0
  %arrayidx = getelementptr inbounds [1 x %"struct.std::atomic.29"], ptr %next_, i64 0, i64 1
  ret ptr %arrayidx
}

; Function Attrs: mustprogress uwtable
define linkonce_odr noundef ptr @_ZN7rocksdb14InlineSkipListIRKNS_11MemTableRep13KeyComparatorEE12AllocateNodeEmi(ptr noundef nonnull align 8 dereferenceable(48) %this, i64 noundef %key_size, i32 noundef %height) #0 comdat align 2 {
entry:
  %this.addr = alloca ptr, align 8
  %key_size.addr = alloca i64, align 8
  %height.addr = alloca i32, align 4
  %prefix = alloca i64, align 8
  %raw = alloca ptr, align 8
  %x = alloca ptr, align 8
  store ptr %this, ptr %this.addr, align 8
  store i64 %key_size, ptr %key_size.addr, align 8
  store i32 %height, ptr %height.addr, align 4
  %this1 = load ptr, ptr %this.addr, align 8
  %0 = load i32, ptr %height.addr, align 4
  %sub = sub nsw i32 %0, 1
  %conv = sext i32 %sub to i64
  %mul = mul i64 8, %conv
  store i64 %mul, ptr %prefix, align 8
  %allocator_ = getelementptr inbounds %"class.rocksdb::InlineSkipList", ptr %this1, i32 0, i32 3
  %1 = load ptr, ptr %allocator_, align 8
  %2 = load i64, ptr %prefix, align 8
  %add = add i64 %2, 8
  %3 = load i64, ptr %key_size.addr, align 8
  %add2 = add i64 %add, %3
  %vtable = load ptr, ptr %1, align 8
  %vfn = getelementptr inbounds ptr, ptr %vtable, i64 3
  %4 = load ptr, ptr %vfn, align 8
  %call = call noundef ptr %4(ptr noundef nonnull align 8 dereferenceable(8) %1, i64 noundef %add2, i64 noundef 0, ptr noundef null)
  store ptr %call, ptr %raw, align 8
  %5 = load ptr, ptr %raw, align 8
  %6 = load i64, ptr %prefix, align 8
  %add.ptr = getelementptr inbounds i8, ptr %5, i64 %6
  store ptr %add.ptr, ptr %x, align 8
  %7 = load ptr, ptr %x, align 8
  %8 = load i32, ptr %height.addr, align 4
  call void @_ZN7rocksdb14InlineSkipListIRKNS_11MemTableRep13KeyComparatorEE4Node11StashHeightEi(ptr noundef nonnull align 8 dereferenceable(8) %7, i32 noundef %8)
  %9 = load ptr, ptr %x, align 8
  ret ptr %9
}

; Function Attrs: mustprogress uwtable
define linkonce_odr noundef i32 @_ZN7rocksdb14InlineSkipListIRKNS_11MemTableRep13KeyComparatorEE12RandomHeightEv(ptr noundef nonnull align 8 dereferenceable(48) %this) #0 comdat align 2 {
entry:
  %this.addr = alloca ptr, align 8
  %rnd = alloca ptr, align 8
  %height = alloca i32, align 4
  store ptr %this, ptr %this.addr, align 8
  %this1 = load ptr, ptr %this.addr, align 8
  %call = call noundef ptr @_ZN7rocksdb6Random14GetTLSInstanceEv()
  store ptr %call, ptr %rnd, align 8
  store i32 1, ptr %height, align 4
  br label %while.cond

while.cond:                                       ; preds = %while.body, %entry
  %0 = load i32, ptr %height, align 4
  %kMaxHeight_ = getelementptr inbounds %"class.rocksdb::InlineSkipList", ptr %this1, i32 0, i32 0
  %1 = load i16, ptr %kMaxHeight_, align 8
  %conv = zext i16 %1 to i32
  %cmp = icmp slt i32 %0, %conv
  br i1 %cmp, label %land.lhs.true, label %land.end

land.lhs.true:                                    ; preds = %while.cond
  %2 = load i32, ptr %height, align 4
  %cmp2 = icmp slt i32 %2, 32
  br i1 %cmp2, label %land.rhs, label %land.end

land.rhs:                                         ; preds = %land.lhs.true
  %3 = load ptr, ptr %rnd, align 8
  %call3 = call noundef i32 @_ZN7rocksdb6Random4NextEv(ptr noundef nonnull align 4 dereferenceable(4) %3)
  %kScaledInverseBranching_ = getelementptr inbounds %"class.rocksdb::InlineSkipList", ptr %this1, i32 0, i32 2
  %4 = load i32, ptr %kScaledInverseBranching_, align 4
  %cmp4 = icmp ult i32 %call3, %4
  br label %land.end

land.end:                                         ; preds = %land.rhs, %land.lhs.true, %while.cond
  %5 = phi i1 [ false, %land.lhs.true ], [ false, %while.cond ], [ %cmp4, %land.rhs ]
  br i1 %5, label %while.body, label %while.end

while.body:                                       ; preds = %land.end
  %6 = load i32, ptr %height, align 4
  %inc = add nsw i32 %6, 1
  store i32 %inc, ptr %height, align 4
  br label %while.cond, !llvm.loop !14

while.end:                                        ; preds = %land.end
  %7 = load i32, ptr %height, align 4
  ret i32 %7
}

; Function Attrs: mustprogress uwtable
define linkonce_odr noundef ptr @_ZN7rocksdb14InlineSkipListIRKNS_11MemTableRep13KeyComparatorEE11AllocateKeyEm(ptr noundef nonnull align 8 dereferenceable(48) %this, i64 noundef %key_size) #0 comdat align 2 {
entry:
  %this.addr = alloca ptr, align 8
  %key_size.addr = alloca i64, align 8
  store ptr %this, ptr %this.addr, align 8
  store i64 %key_size, ptr %key_size.addr, align 8
  %this1 = load ptr, ptr %this.addr, align 8
  %0 = load i64, ptr %key_size.addr, align 8
  %call = call noundef i32 @_ZN7rocksdb14InlineSkipListIRKNS_11MemTableRep13KeyComparatorEE12RandomHeightEv(ptr noundef nonnull align 8 dereferenceable(48) %this1)
  %call2 = call noundef ptr @_ZN7rocksdb14InlineSkipListIRKNS_11MemTableRep13KeyComparatorEE12AllocateNodeEmi(ptr noundef nonnull align 8 dereferenceable(48) %this1, i64 noundef %0, i32 noundef %call)
  %call3 = call noundef ptr @_ZNK7rocksdb14InlineSkipListIRKNS_11MemTableRep13KeyComparatorEE4Node3KeyEv(ptr noundef nonnull align 8 dereferenceable(8) %call2)
  ret ptr %call3
}

; Function Attrs: mustprogress uwtable
define internal noundef ptr @_ZN7rocksdb12_GLOBAL__N_111SkipListRep8AllocateEmPPc(ptr noundef nonnull align 8 dereferenceable(88) %this, i64 noundef %len, ptr noundef %buf) unnamed_addr #0 align 2 {
entry:
  %this.addr = alloca ptr, align 8
  %len.addr = alloca i64, align 8
  %buf.addr = alloca ptr, align 8
  store ptr %this, ptr %this.addr, align 8
  store i64 %len, ptr %len.addr, align 8
  store ptr %buf, ptr %buf.addr, align 8
  %this1 = load ptr, ptr %this.addr, align 8
  %skip_list_ = getelementptr inbounds %"class.rocksdb::(anonymous namespace)::SkipListRep", ptr %this1, i32 0, i32 1
  %0 = load i64, ptr %len.addr, align 8
  %call = call noundef ptr @_ZN7rocksdb14InlineSkipListIRKNS_11MemTableRep13KeyComparatorEE11AllocateKeyEm(ptr noundef nonnull align 8 dereferenceable(48) %skip_list_, i64 noundef %0)
  %1 = load ptr, ptr %buf.addr, align 8
  store ptr %call, ptr %1, align 8
  %2 = load ptr, ptr %buf.addr, align 8
  %3 = load ptr, ptr %2, align 8
  ret ptr %3
}