; Function Attrs: mustprogress uwtable
define internal noundef ptr @_ZN7rocksdb12_GLOBAL__N_111SkipListRep8AllocateEmPPc(ptr nocapture noundef nonnull readonly align 8 dereferenceable(88) %this, i64 noundef %len, ptr nocapture noundef writeonly %buf) unnamed_addr #3 align 2 {
entry:
  %skip_list_ = getelementptr inbounds i8, ptr %this, i64 16
  %call.i.i = tail call noundef ptr @_ZN7rocksdb6Random14GetTLSInstanceEv()
  %0 = load i16, ptr %skip_list_, align 8
  %cmp5.i.i = icmp ugt i16 %0, 1
  br i1 %cmp5.i.i, label %land.rhs.lr.ph.i.i, label %_ZN7rocksdb14InlineSkipListIRKNS_11MemTableRep13KeyComparatorEE11AllocateKeyEm.exit

land.rhs.lr.ph.i.i:                               ; preds = %entry
  %kScaledInverseBranching_.i.i = getelementptr inbounds i8, ptr %this, i64 20
  %.pre.i.i = load i32, ptr %call.i.i, align 4
  br label %land.rhs.i.i

land.rhs.i.i:                                     ; preds = %while.body.i.i, %land.rhs.lr.ph.i.i
  %1 = phi i32 [ %.pre.i.i, %land.rhs.lr.ph.i.i ], [ %spec.select.i.i.i, %while.body.i.i ]
  %height.06.i.i = phi i32 [ 1, %land.rhs.lr.ph.i.i ], [ %inc.i.i, %while.body.i.i ]
  %conv.i.i.i = zext i32 %1 to i64
  %mul.i.i.i = mul nuw nsw i64 %conv.i.i.i, 16807
  %shr.i.i.i = lshr i64 %mul.i.i.i, 31
  %and.i.i.i = and i64 %mul.i.i.i, 2147483647
  %add.i.i.i = add nuw nsw i64 %shr.i.i.i, %and.i.i.i
  %conv2.i.i.i = trunc i64 %add.i.i.i to i32
  %cmp.i.i.i = icmp slt i32 %conv2.i.i.i, 0
  %sub.i.i.i = add i32 %conv2.i.i.i, -2147483647
  %spec.select.i.i.i = select i1 %cmp.i.i.i, i32 %sub.i.i.i, i32 %conv2.i.i.i
  store i32 %spec.select.i.i.i, ptr %call.i.i, align 4
  %2 = load i32, ptr %kScaledInverseBranching_.i.i, align 4
  %cmp4.i.i = icmp ult i32 %spec.select.i.i.i, %2
  br i1 %cmp4.i.i, label %while.body.i.i, label %_ZN7rocksdb14InlineSkipListIRKNS_11MemTableRep13KeyComparatorEE11AllocateKeyEm.exit

while.body.i.i:                                   ; preds = %land.rhs.i.i
  %inc.i.i = add nuw nsw i32 %height.06.i.i, 1
  %3 = load i16, ptr %skip_list_, align 8
  %conv.i.i = zext i16 %3 to i32
  %cmp.i.i = icmp ult i32 %inc.i.i, %conv.i.i
  %cmp2.i.i = icmp ult i32 %height.06.i.i, 31
  %or.cond.i.i = and i1 %cmp2.i.i, %cmp.i.i
  br i1 %or.cond.i.i, label %land.rhs.i.i, label %_ZN7rocksdb14InlineSkipListIRKNS_11MemTableRep13KeyComparatorEE11AllocateKeyEm.exit, !llvm.loop !10

_ZN7rocksdb14InlineSkipListIRKNS_11MemTableRep13KeyComparatorEE11AllocateKeyEm.exit: ; preds = %land.rhs.i.i, %while.body.i.i, %entry
  %height.0.lcssa.i.i = phi i32 [ 1, %entry ], [ %inc.i.i, %while.body.i.i ], [ %height.06.i.i, %land.rhs.i.i ]
  %sub.i.i = add nsw i32 %height.0.lcssa.i.i, -1
  %conv.i1.i = sext i32 %sub.i.i to i64
  %mul.i.i = shl nsw i64 %conv.i1.i, 3
  %allocator_.i.i = getelementptr inbounds i8, ptr %this, i64 24
  %4 = load ptr, ptr %allocator_.i.i, align 8
  %add.i.i = add i64 %len, 8
  %add2.i.i = add i64 %add.i.i, %mul.i.i
  %vtable.i.i = load ptr, ptr %4, align 8
  %vfn.i.i = getelementptr inbounds i8, ptr %vtable.i.i, i64 24
  %5 = load ptr, ptr %vfn.i.i, align 8
  %call.i2.i = tail call noundef ptr %5(ptr noundef nonnull align 8 dereferenceable(8) %4, i64 noundef %add2.i.i, i64 noundef 0, ptr noundef null)
  %add.ptr.i.i = getelementptr inbounds i8, ptr %call.i2.i, i64 %mul.i.i
  store i32 %height.0.lcssa.i.i, ptr %add.ptr.i.i, align 1
  %arrayidx.i.i = getelementptr inbounds i8, ptr %add.ptr.i.i, i64 8
  store ptr %arrayidx.i.i, ptr %buf, align 8
  ret ptr %arrayidx.i.i
}